target datalayout = "e-m:e-p270:32:32-p271:32:32-p272:64:64-i64:64-i128:128-f80:128-n8:16:32:64-S128"
target triple = "x86_64-pc-linux-gnu"

%"class.icu_77::Edits" = type <{ ptr, i32, i32, i32, i32, i32, [100 x i16], [4 x i8] }>

; Function Attrs: mustprogress nounwind uwtable
define void @_ZN6icu_775Edits12releaseArrayEv(ptr noundef nonnull align 8 dereferenceable(232) %0) #0 align 2 personality ptr @__gxx_personality_v0 {
  %2 = alloca ptr, align 8
  store ptr %0, ptr %2, align 8, !tbaa !23
  %3 = load ptr, ptr %2, align 8
  %4 = getelementptr inbounds nuw %"class.icu_77::Edits", ptr %3, i32 0, i32 0
  %5 = load ptr, ptr %4, align 8, !tbaa !25
  %6 = getelementptr inbounds nuw %"class.icu_77::Edits", ptr %3, i32 0, i32 6
  %7 = getelementptr inbounds [100 x i16], ptr %6, i64 0, i64 0
  %8 = icmp ne ptr %5, %7
  br i1 %8, label %9, label %13

9:                                                ; preds = %1
  %10 = getelementptr inbounds nuw %"class.icu_77::Edits", ptr %3, i32 0, i32 0
  %11 = load ptr, ptr %10, align 8, !tbaa !25
  invoke void @uprv_free_77(ptr noundef %11)
          to label %12 unwind label %14

12:                                               ; preds = %9
  br label %13

13:                                               ; preds = %12, %1
  ret void

14:                                               ; preds = %9
  %15 = landingpad { ptr, i32 }
          catch ptr null
  %16 = extractvalue { ptr, i32 } %15, 0
  call void @__clang_call_terminate(ptr %16) #11
  unreachable
}

; Function Attrs: mustprogress uwtable
define noundef signext i8 @_ZN6icu_775Edits9growArrayEv(ptr noundef nonnull align 8 dereferenceable(232) %0) #1 align 2 {
  %2 = alloca i8, align 1
  %3 = alloca ptr, align 8
  %4 = alloca i32, align 4
  %5 = alloca i32, align 4
  %6 = alloca ptr, align 8
  store ptr %0, ptr %3, align 8, !tbaa !23
  %7 = load ptr, ptr %3, align 8
  call void @llvm.lifetime.start.p0(i64 4, ptr %4) #9
  %8 = getelementptr inbounds nuw %"class.icu_77::Edits", ptr %7, i32 0, i32 0
  %9 = load ptr, ptr %8, align 8, !tbaa !25
  %10 = getelementptr inbounds nuw %"class.icu_77::Edits", ptr %7, i32 0, i32 6
  %11 = getelementptr inbounds [100 x i16], ptr %10, i64 0, i64 0
  %12 = icmp eq ptr %9, %11
  br i1 %12, label %13, label %14

13:                                               ; preds = %1
  store i32 2000, ptr %4, align 4, !tbaa !14
  br label %31

14:                                               ; preds = %1
  %15 = getelementptr inbounds nuw %"class.icu_77::Edits", ptr %7, i32 0, i32 1
  %16 = load i32, ptr %15, align 8, !tbaa !32
  %17 = icmp eq i32 %16, 2147483647
  br i1 %17, label %18, label %20

18:                                               ; preds = %14
  %19 = getelementptr inbounds nuw %"class.icu_77::Edits", ptr %7, i32 0, i32 5
  store i32 8, ptr %19, align 8, !tbaa !28
  store i8 0, ptr %2, align 1
  store i32 1, ptr %5, align 4
  br label %64

20:                                               ; preds = %14
  %21 = getelementptr inbounds nuw %"class.icu_77::Edits", ptr %7, i32 0, i32 1
  %22 = load i32, ptr %21, align 8, !tbaa !32
  %23 = icmp sge i32 %22, 1073741823
  br i1 %23, label %24, label %25

24:                                               ; preds = %20
  store i32 2147483647, ptr %4, align 4, !tbaa !14
  br label %29

25:                                               ; preds = %20
  %26 = getelementptr inbounds nuw %"class.icu_77::Edits", ptr %7, i32 0, i32 1
  %27 = load i32, ptr %26, align 8, !tbaa !32
  %28 = mul nsw i32 2, %27
  store i32 %28, ptr %4, align 4, !tbaa !14
  br label %29

29:                                               ; preds = %25, %24
  br label %30

30:                                               ; preds = %29
  br label %31

31:                                               ; preds = %30, %13
  %32 = load i32, ptr %4, align 4, !tbaa !14
  %33 = getelementptr inbounds nuw %"class.icu_77::Edits", ptr %7, i32 0, i32 1
  %34 = load i32, ptr %33, align 8, !tbaa !32
  %35 = sub nsw i32 %32, %34
  %36 = icmp slt i32 %35, 5
  br i1 %36, label %37, label %39

37:                                               ; preds = %31
  %38 = getelementptr inbounds nuw %"class.icu_77::Edits", ptr %7, i32 0, i32 5
  store i32 8, ptr %38, align 8, !tbaa !28
  store i8 0, ptr %2, align 1
  store i32 1, ptr %5, align 4
  br label %64

39:                                               ; preds = %31
  call void @llvm.lifetime.start.p0(i64 8, ptr %6) #9
  %40 = load i32, ptr %4, align 4, !tbaa !14
  %41 = sext i32 %40 to i64
  %42 = mul i64 %41, 2
  %43 = call noalias ptr @uprv_malloc_77(i64 noundef %42) #10
  store ptr %43, ptr %6, align 8, !tbaa !33
  %44 = load ptr, ptr %6, align 8, !tbaa !33
  %45 = icmp eq ptr %44, null
  br i1 %45, label %46, label %48

46:                                               ; preds = %39
  %47 = getelementptr inbounds nuw %"class.icu_77::Edits", ptr %7, i32 0, i32 5
  store i32 7, ptr %47, align 8, !tbaa !28
  store i8 0, ptr %2, align 1
  store i32 1, ptr %5, align 4
  br label %63

48:                                               ; preds = %39
  br label %49

49:                                               ; preds = %48
  %50 = load ptr, ptr %6, align 8, !tbaa !33
  %51 = getelementptr inbounds nuw %"class.icu_77::Edits", ptr %7, i32 0, i32 0
  %52 = load ptr, ptr %51, align 8, !tbaa !25
  %53 = getelementptr inbounds nuw %"class.icu_77::Edits", ptr %7, i32 0, i32 2
  %54 = load i32, ptr %53, align 4, !tbaa !31
  %55 = sext i32 %54 to i64
  %56 = mul i64 %55, 2
  call void @llvm.memcpy.p0.p0.i64(ptr align 2 %50, ptr align 2 %52, i64 %56, i1 false)
  br label %57

57:                                               ; preds = %49
  br label %58

58:                                               ; preds = %57
  call void @_ZN6icu_775Edits12releaseArrayEv(ptr noundef nonnull align 8 dereferenceable(232) %7) #9
  %59 = load ptr, ptr %6, align 8, !tbaa !33
  %60 = getelementptr inbounds nuw %"class.icu_77::Edits", ptr %7, i32 0, i32 0
  store ptr %59, ptr %60, align 8, !tbaa !25
  %61 = load i32, ptr %4, align 4, !tbaa !14
  %62 = getelementptr inbounds nuw %"class.icu_77::Edits", ptr %7, i32 0, i32 1
  store i32 %61, ptr %62, align 8, !tbaa !32
  store i8 1, ptr %2, align 1
  store i32 1, ptr %5, align 4
  br label %63

63:                                               ; preds = %58, %46
  call void @llvm.lifetime.end.p0(i64 8, ptr %6) #9
  br label %64

64:                                               ; preds = %63, %37, %18
  call void @llvm.lifetime.end.p0(i64 4, ptr %4) #9
  %65 = load i8, ptr %2, align 1
  ret i8 %65
}

; Function Attrs: mustprogress uwtable
define void @_ZN6icu_775Edits6appendEi(ptr noundef nonnull align 8 dereferenceable(232) %0, i32 noundef %1) #1 align 2 {
  %3 = alloca ptr, align 8
  %4 = alloca i32, align 4
  store ptr %0, ptr %3, align 8, !tbaa !23
  store i32 %1, ptr %4, align 4, !tbaa !14
  %5 = load ptr, ptr %3, align 8
  %6 = getelementptr inbounds nuw %"class.icu_77::Edits", ptr %5, i32 0, i32 2
  %7 = load i32, ptr %6, align 4, !tbaa !31
  %8 = getelementptr inbounds nuw %"class.icu_77::Edits", ptr %5, i32 0, i32 1
  %9 = load i32, ptr %8, align 8, !tbaa !32
  %10 = icmp slt i32 %7, %9
  br i1 %10, label %14, label %11

11:                                               ; preds = %2
  %12 = call noundef signext i8 @_ZN6icu_775Edits9growArrayEv(ptr noundef nonnull align 8 dereferenceable(232) %5)
  %13 = icmp ne i8 %12, 0
  br i1 %13, label %14, label %24

14:                                               ; preds = %11, %2
  %15 = load i32, ptr %4, align 4, !tbaa !14
  %16 = trunc i32 %15 to i16
  %17 = getelementptr inbounds nuw %"class.icu_77::Edits", ptr %5, i32 0, i32 0
  %18 = load ptr, ptr %17, align 8, !tbaa !25
  %19 = getelementptr inbounds nuw %"class.icu_77::Edits", ptr %5, i32 0, i32 2
  %20 = load i32, ptr %19, align 4, !tbaa !31
  %21 = add nsw i32 %20, 1
  store i32 %21, ptr %19, align 4, !tbaa !31
  %22 = sext i32 %20 to i64
  %23 = getelementptr inbounds i16, ptr %18, i64 %22
  store i16 %16, ptr %23, align 2, !tbaa !36
  br label %24

24:                                               ; preds = %14, %11
  ret void
}

; Function Attrs: mustprogress nounwind uwtable
define linkonce_odr void @_ZN6icu_775Edits11setLastUnitEi(ptr noundef nonnull align 8 dereferenceable(232) %0, i32 noundef %1) #0 comdat align 2 {
  %3 = alloca ptr, align 8
  %4 = alloca i32, align 4
  store ptr %0, ptr %3, align 8, !tbaa !23
  store i32 %1, ptr %4, align 4, !tbaa !14
  %5 = load ptr, ptr %3, align 8
  %6 = load i32, ptr %4, align 4, !tbaa !14
  %7 = trunc i32 %6 to i16
  %8 = getelementptr inbounds nuw %"class.icu_77::Edits", ptr %5, i32 0, i32 0
  %9 = load ptr, ptr %8, align 8, !tbaa !25
  %10 = getelementptr inbounds nuw %"class.icu_77::Edits", ptr %5, i32 0, i32 2
  %11 = load i32, ptr %10, align 4, !tbaa !31
  %12 = sub nsw i32 %11, 1
  %13 = sext i32 %12 to i64
  %14 = getelementptr inbounds i16, ptr %9, i64 %13
  store i16 %7, ptr %14, align 2, !tbaa !36
  ret void
}

; Function Attrs: mustprogress nounwind uwtable
define linkonce_odr noundef i32 @_ZNK6icu_775Edits8lastUnitEv(ptr noundef nonnull align 8 dereferenceable(232) %0) #0 comdat align 2 {
  %2 = alloca ptr, align 8
  store ptr %0, ptr %2, align 8, !tbaa !23
  %3 = load ptr, ptr %2, align 8
  %4 = getelementptr inbounds nuw %"class.icu_77::Edits", ptr %3, i32 0, i32 2
  %5 = load i32, ptr %4, align 4, !tbaa !31
  %6 = icmp sgt i32 %5, 0
  br i1 %6, label %7, label %17

7:                                                ; preds = %1
  %8 = getelementptr inbounds nuw %"class.icu_77::Edits", ptr %3, i32 0, i32 0
  %9 = load ptr, ptr %8, align 8, !tbaa !25
  %10 = getelementptr inbounds nuw %"class.icu_77::Edits", ptr %3, i32 0, i32 2
  %11 = load i32, ptr %10, align 4, !tbaa !31
  %12 = sub nsw i32 %11, 1
  %13 = sext i32 %12 to i64
  %14 = getelementptr inbounds i16, ptr %9, i64 %13
  %15 = load i16, ptr %14, align 2, !tbaa !36
  %16 = zext i16 %15 to i32
  br label %18

17:                                               ; preds = %1
  br label %18

18:                                               ; preds = %17, %7
  %19 = phi i32 [ %16, %7 ], [ 65535, %17 ]
  ret i32 %19
}

; Function Attrs: inlinehint mustprogress nounwind uwtable
define internal noundef signext i8 @_ZL9U_FAILURE10UErrorCode(i32 noundef %0) #2 {
  %2 = alloca i32, align 4
  store i32 %0, ptr %2, align 4, !tbaa !15
  %3 = load i32, ptr %2, align 4, !tbaa !15
  %4 = icmp sgt i32 %3, 0
  %5 = zext i1 %4 to i8
  ret i8 %5
}

; Function Attrs: mustprogress uwtable
define void @_ZN6icu_775Edits12addUnchangedEi(ptr noundef nonnull align 8 dereferenceable(232) %0, i32 noundef %1) #1 align 2 {
  %3 = alloca ptr, align 8
  %4 = alloca i32, align 4
  %5 = alloca i32, align 4
  %6 = alloca i32, align 4
  %7 = alloca i32, align 4
  store ptr %0, ptr %3, align 8, !tbaa !23
  store i32 %1, ptr %4, align 4, !tbaa !14
  %8 = load ptr, ptr %3, align 8
  %9 = getelementptr inbounds nuw %"class.icu_77::Edits", ptr %8, i32 0, i32 5
  %10 = load i32, ptr %9, align 8, !tbaa !28
  %11 = call noundef signext i8 @_ZL9U_FAILURE10UErrorCode(i32 noundef %10)
  %12 = icmp ne i8 %11, 0
  br i1 %12, label %16, label %13

13:                                               ; preds = %2
  %14 = load i32, ptr %4, align 4, !tbaa !14
  %15 = icmp eq i32 %14, 0
  br i1 %15, label %16, label %17

16:                                               ; preds = %13, %2
  br label %59

17:                                               ; preds = %13
  %18 = load i32, ptr %4, align 4, !tbaa !14
  %19 = icmp slt i32 %18, 0
  br i1 %19, label %20, label %22

20:                                               ; preds = %17
  %21 = getelementptr inbounds nuw %"class.icu_77::Edits", ptr %8, i32 0, i32 5
  store i32 1, ptr %21, align 8, !tbaa !28
  br label %59

22:                                               ; preds = %17
  call void @llvm.lifetime.start.p0(i64 4, ptr %5) #9
  %23 = call noundef i32 @_ZNK6icu_775Edits8lastUnitEv(ptr noundef nonnull align 8 dereferenceable(232) %8)
  store i32 %23, ptr %5, align 4, !tbaa !14
  %24 = load i32, ptr %5, align 4, !tbaa !14
  %25 = icmp slt i32 %24, 4095
  br i1 %25, label %26, label %43

26:                                               ; preds = %22
  call void @llvm.lifetime.start.p0(i64 4, ptr %6) #9
  %27 = load i32, ptr %5, align 4, !tbaa !14
  %28 = sub nsw i32 4095, %27
  store i32 %28, ptr %6, align 4, !tbaa !14
  %29 = load i32, ptr %6, align 4, !tbaa !14
  %30 = load i32, ptr %4, align 4, !tbaa !14
  %31 = icmp sge i32 %29, %30
  br i1 %31, label %32, label %36

32:                                               ; preds = %26
  %33 = load i32, ptr %5, align 4, !tbaa !14
  %34 = load i32, ptr %4, align 4, !tbaa !14
  %35 = add nsw i32 %33, %34
  call void @_ZN6icu_775Edits11setLastUnitEi(ptr noundef nonnull align 8 dereferenceable(232) %8, i32 noundef %35)
  store i32 1, ptr %7, align 4
  br label %40

36:                                               ; preds = %26
  call void @_ZN6icu_775Edits11setLastUnitEi(ptr noundef nonnull align 8 dereferenceable(232) %8, i32 noundef 4095)
  %37 = load i32, ptr %6, align 4, !tbaa !14
  %38 = load i32, ptr %4, align 4, !tbaa !14
  %39 = sub nsw i32 %38, %37
  store i32 %39, ptr %4, align 4, !tbaa !14
  store i32 0, ptr %7, align 4
  br label %40

40:                                               ; preds = %36, %32
  call void @llvm.lifetime.end.p0(i64 4, ptr %6) #9
  %41 = load i32, ptr %7, align 4
  switch i32 %41, label %57 [
    i32 0, label %42
  ]

42:                                               ; preds = %40
  br label %43

43:                                               ; preds = %42, %22
  br label %44

44:                                               ; preds = %47, %43
  %45 = load i32, ptr %4, align 4, !tbaa !14
  %46 = icmp sge i32 %45, 4096
  br i1 %46, label %47, label %50

47:                                               ; preds = %44
  call void @_ZN6icu_775Edits6appendEi(ptr noundef nonnull align 8 dereferenceable(232) %8, i32 noundef 4095)
  %48 = load i32, ptr %4, align 4, !tbaa !14
  %49 = sub nsw i32 %48, 4096
  store i32 %49, ptr %4, align 4, !tbaa !14
  br label %44, !llvm.loop !34

50:                                               ; preds = %44
  %51 = load i32, ptr %4, align 4, !tbaa !14
  %52 = icmp sgt i32 %51, 0
  br i1 %52, label %53, label %56

53:                                               ; preds = %50
  %54 = load i32, ptr %4, align 4, !tbaa !14
  %55 = sub nsw i32 %54, 1
  call void @_ZN6icu_775Edits6appendEi(ptr noundef nonnull align 8 dereferenceable(232) %8, i32 noundef %55)
  br label %56

56:                                               ; preds = %53, %50
  store i32 0, ptr %7, align 4
  br label %57

57:                                               ; preds = %56, %40
  call void @llvm.lifetime.end.p0(i64 4, ptr %5) #9
  %58 = load i32, ptr %7, align 4
  switch i32 %58, label %60 [
    i32 0, label %59
    i32 1, label %59
  ]

59:                                               ; preds = %16, %20, %57, %57
  ret void

60:                                               ; preds = %57
  unreachable
}