; Function Attrs: mustprogress uwtable
define void @_ZN6icu_775Edits12addUnchangedEi(ptr noundef nonnull align 8 dereferenceable(232) %0, i32 noundef %1) local_unnamed_addr #1 align 2 personality ptr @__gxx_personality_v0 {
  %3 = getelementptr inbounds nuw i8, ptr %0, i64 24
  %4 = load i32, ptr %3, align 8, !tbaa !18
  %5 = icmp sgt i32 %4, 0
  %6 = icmp eq i32 %1, 0
  %or.cond = or i1 %6, %5
  br i1 %or.cond, label %_ZN6icu_775Edits6appendEi.exit29, label %7

7:                                                ; preds = %2
  %8 = icmp slt i32 %1, 0
  br i1 %8, label %9, label %10

9:                                                ; preds = %7
  store i32 1, ptr %3, align 8, !tbaa !18
  br label %_ZN6icu_775Edits6appendEi.exit29

10:                                               ; preds = %7
  %11 = getelementptr inbounds nuw i8, ptr %0, i64 12
  %12 = load i32, ptr %11, align 4, !tbaa !21
  %13 = icmp sgt i32 %12, 0
  br i1 %13, label %_ZNK6icu_775Edits8lastUnitEv.exit, label %_ZNK6icu_775Edits8lastUnitEv.exit.thread

_ZNK6icu_775Edits8lastUnitEv.exit:                ; preds = %10
  %14 = load ptr, ptr %0, align 8, !tbaa !15
  %15 = zext nneg i32 %12 to i64
  %16 = getelementptr i16, ptr %14, i64 %15
  %17 = getelementptr i8, ptr %16, i64 -2
  %18 = load i16, ptr %17, align 2, !tbaa !23
  %19 = icmp ult i16 %18, 4095
  br i1 %19, label %20, label %_ZNK6icu_775Edits8lastUnitEv.exit.thread

20:                                               ; preds = %_ZNK6icu_775Edits8lastUnitEv.exit
  %narrow = sub nuw nsw i16 4095, %18
  %21 = zext nneg i16 %narrow to i32
  %.not = icmp samesign ugt i32 %1, %21
  br i1 %.not, label %.thread, label %23

.thread:                                          ; preds = %20
  store i16 4095, ptr %17, align 2, !tbaa !23
  %22 = sub nuw nsw i32 %1, %21
  br label %_ZNK6icu_775Edits8lastUnitEv.exit.thread

23:                                               ; preds = %20
  %24 = trunc i32 %1 to i16
  %25 = add nuw nsw i16 %18, %24
  store i16 %25, ptr %17, align 2, !tbaa !23
  br label %_ZN6icu_775Edits6appendEi.exit29

_ZNK6icu_775Edits8lastUnitEv.exit.thread:         ; preds = %10, %.thread, %_ZNK6icu_775Edits8lastUnitEv.exit
  %.016 = phi i32 [ %1, %_ZNK6icu_775Edits8lastUnitEv.exit ], [ %22, %.thread ], [ %1, %10 ]
  %26 = icmp samesign ugt i32 %.016, 4095
  br i1 %26, label %.lr.ph, label %._crit_edge

.lr.ph:                                           ; preds = %_ZNK6icu_775Edits8lastUnitEv.exit.thread
  %27 = getelementptr inbounds nuw i8, ptr %0, i64 8
  %28 = getelementptr inbounds nuw i8, ptr %0, i64 28
  br label %29

29:                                               ; preds = %.lr.ph, %_ZN6icu_775Edits6appendEi.exit
  %.232 = phi i32 [ %.016, %.lr.ph ], [ %65, %_ZN6icu_775Edits6appendEi.exit ]
  %30 = load i32, ptr %11, align 4, !tbaa !21
  %31 = load i32, ptr %27, align 8, !tbaa !22
  %32 = icmp slt i32 %30, %31
  %.pre.i = load ptr, ptr %0, align 8, !tbaa !15
  br i1 %32, label %59, label %33

33:                                               ; preds = %29
  %34 = icmp eq ptr %.pre.i, %28
  br i1 %34, label %._crit_edge.i.i, label %35

35:                                               ; preds = %33
  %36 = icmp eq i32 %31, 2147483647
  br i1 %36, label %37, label %38

37:                                               ; preds = %35
  store i32 8, ptr %3, align 8, !tbaa !18
  br label %_ZN6icu_775Edits6appendEi.exit

38:                                               ; preds = %35
  %39 = icmp sgt i32 %31, 1073741822
  %40 = shl nsw i32 %31, 1
  %spec.select.i.i = select i1 %39, i32 2147483647, i32 %40
  br label %._crit_edge.i.i

._crit_edge.i.i:                                  ; preds = %38, %33
  %.07.i.i = phi i32 [ %spec.select.i.i, %38 ], [ 2000, %33 ]
  %41 = sub nsw i32 %.07.i.i, %31
  %42 = icmp slt i32 %41, 5
  br i1 %42, label %43, label %44

43:                                               ; preds = %._crit_edge.i.i
  store i32 8, ptr %3, align 8, !tbaa !18
  br label %_ZN6icu_775Edits6appendEi.exit

44:                                               ; preds = %._crit_edge.i.i
  %45 = sext i32 %.07.i.i to i64
  %46 = shl nsw i64 %45, 1
  %47 = tail call noalias ptr @uprv_malloc_77(i64 noundef %46) #17
  %48 = icmp eq ptr %47, null
  br i1 %48, label %49, label %50

49:                                               ; preds = %44
  store i32 7, ptr %3, align 8, !tbaa !18
  br label %_ZN6icu_775Edits6appendEi.exit

50:                                               ; preds = %44
  %51 = load ptr, ptr %0, align 8, !tbaa !15
  %52 = load i32, ptr %11, align 4, !tbaa !21
  %53 = sext i32 %52 to i64
  %54 = shl nsw i64 %53, 1
  tail call void @llvm.memcpy.p0.p0.i64(ptr nonnull align 2 %47, ptr align 2 %51, i64 %54, i1 false)
  %.not.i.i.i = icmp eq ptr %51, %28
  br i1 %.not.i.i.i, label %_ZN6icu_775Edits9growArrayEv.exit.i, label %55

55:                                               ; preds = %50
  invoke void @uprv_free_77(ptr noundef %51)
          to label %._ZN6icu_775Edits9growArrayEv.exit_crit_edge.i unwind label %56

._ZN6icu_775Edits9growArrayEv.exit_crit_edge.i:   ; preds = %55
  %.pre3.pre.i = load i32, ptr %11, align 4, !tbaa !21
  br label %_ZN6icu_775Edits9growArrayEv.exit.i

56:                                               ; preds = %55
  %57 = landingpad { ptr, i32 }
          catch ptr null
  %58 = extractvalue { ptr, i32 } %57, 0
  tail call void @__clang_call_terminate(ptr %58) #18
  unreachable

_ZN6icu_775Edits9growArrayEv.exit.i:              ; preds = %._ZN6icu_775Edits9growArrayEv.exit_crit_edge.i, %50
  %.pre3.i = phi i32 [ %.pre3.pre.i, %._ZN6icu_775Edits9growArrayEv.exit_crit_edge.i ], [ %52, %50 ]
  store ptr %47, ptr %0, align 8, !tbaa !15
  store i32 %.07.i.i, ptr %27, align 8, !tbaa !22
  br label %59

59:                                               ; preds = %_ZN6icu_775Edits9growArrayEv.exit.i, %29
  %60 = phi i32 [ %.pre3.i, %_ZN6icu_775Edits9growArrayEv.exit.i ], [ %30, %29 ]
  %61 = phi ptr [ %47, %_ZN6icu_775Edits9growArrayEv.exit.i ], [ %.pre.i, %29 ]
  %62 = add nsw i32 %60, 1
  store i32 %62, ptr %11, align 4, !tbaa !21
  %63 = sext i32 %60 to i64
  %64 = getelementptr inbounds i16, ptr %61, i64 %63
  store i16 4095, ptr %64, align 2, !tbaa !23
  br label %_ZN6icu_775Edits6appendEi.exit

_ZN6icu_775Edits6appendEi.exit:                   ; preds = %37, %43, %49, %59
  %65 = add nsw i32 %.232, -4096
  %66 = icmp sgt i32 %.232, 8191
  br i1 %66, label %29, label %._crit_edge, !llvm.loop !25

._crit_edge:                                      ; preds = %_ZN6icu_775Edits6appendEi.exit, %_ZNK6icu_775Edits8lastUnitEv.exit.thread
  %.2.lcssa = phi i32 [ %.016, %_ZNK6icu_775Edits8lastUnitEv.exit.thread ], [ %65, %_ZN6icu_775Edits6appendEi.exit ]
  %67 = icmp sgt i32 %.2.lcssa, 0
  br i1 %67, label %68, label %_ZN6icu_775Edits6appendEi.exit29

68:                                               ; preds = %._crit_edge
  %69 = load i32, ptr %11, align 4, !tbaa !21
  %70 = getelementptr inbounds nuw i8, ptr %0, i64 8
  %71 = load i32, ptr %70, align 8, !tbaa !22
  %72 = icmp slt i32 %69, %71
  %.pre.i20 = load ptr, ptr %0, align 8, !tbaa !15
  br i1 %72, label %100, label %73

73:                                               ; preds = %68
  %74 = getelementptr inbounds nuw i8, ptr %0, i64 28
  %75 = icmp eq ptr %.pre.i20, %74
  br i1 %75, label %._crit_edge.i.i22, label %76

76:                                               ; preds = %73
  %77 = icmp eq i32 %71, 2147483647
  br i1 %77, label %78, label %79

78:                                               ; preds = %76
  store i32 8, ptr %3, align 8, !tbaa !18
  br label %_ZN6icu_775Edits6appendEi.exit29

79:                                               ; preds = %76
  %80 = icmp sgt i32 %71, 1073741822
  %81 = shl nsw i32 %71, 1
  %spec.select.i.i21 = select i1 %80, i32 2147483647, i32 %81
  br label %._crit_edge.i.i22

._crit_edge.i.i22:                                ; preds = %79, %73
  %.07.i.i23 = phi i32 [ %spec.select.i.i21, %79 ], [ 2000, %73 ]
  %82 = sub nsw i32 %.07.i.i23, %71
  %83 = icmp slt i32 %82, 5
  br i1 %83, label %84, label %85

84:                                               ; preds = %._crit_edge.i.i22
  store i32 8, ptr %3, align 8, !tbaa !18
  br label %_ZN6icu_775Edits6appendEi.exit29

85:                                               ; preds = %._crit_edge.i.i22
  %86 = sext i32 %.07.i.i23 to i64
  %87 = shl nsw i64 %86, 1
  %88 = tail call noalias ptr @uprv_malloc_77(i64 noundef %87) #17
  %89 = icmp eq ptr %88, null
  br i1 %89, label %90, label %91

90:                                               ; preds = %85
  store i32 7, ptr %3, align 8, !tbaa !18
  br label %_ZN6icu_775Edits6appendEi.exit29

91:                                               ; preds = %85
  %92 = load ptr, ptr %0, align 8, !tbaa !15
  %93 = load i32, ptr %11, align 4, !tbaa !21
  %94 = sext i32 %93 to i64
  %95 = shl nsw i64 %94, 1
  tail call void @llvm.memcpy.p0.p0.i64(ptr nonnull align 2 %88, ptr align 2 %92, i64 %95, i1 false)
  %.not.i.i.i24 = icmp eq ptr %92, %74
  br i1 %.not.i.i.i24, label %_ZN6icu_775Edits9growArrayEv.exit.i27, label %96

96:                                               ; preds = %91
  invoke void @uprv_free_77(ptr noundef %92)
          to label %._ZN6icu_775Edits9growArrayEv.exit_crit_edge.i25 unwind label %97

._ZN6icu_775Edits9growArrayEv.exit_crit_edge.i25: ; preds = %96
  %.pre3.pre.i26 = load i32, ptr %11, align 4, !tbaa !21
  br label %_ZN6icu_775Edits9growArrayEv.exit.i27

97:                                               ; preds = %96
  %98 = landingpad { ptr, i32 }
          catch ptr null
  %99 = extractvalue { ptr, i32 } %98, 0
  tail call void @__clang_call_terminate(ptr %99) #18
  unreachable

_ZN6icu_775Edits9growArrayEv.exit.i27:            ; preds = %._ZN6icu_775Edits9growArrayEv.exit_crit_edge.i25, %91
  %.pre3.i28 = phi i32 [ %.pre3.pre.i26, %._ZN6icu_775Edits9growArrayEv.exit_crit_edge.i25 ], [ %93, %91 ]
  store ptr %88, ptr %0, align 8, !tbaa !15
  store i32 %.07.i.i23, ptr %70, align 8, !tbaa !22
  br label %100

100:                                              ; preds = %_ZN6icu_775Edits9growArrayEv.exit.i27, %68
  %101 = phi i32 [ %.pre3.i28, %_ZN6icu_775Edits9growArrayEv.exit.i27 ], [ %69, %68 ]
  %102 = phi ptr [ %88, %_ZN6icu_775Edits9growArrayEv.exit.i27 ], [ %.pre.i20, %68 ]
  %103 = trunc i32 %.2.lcssa to i16
  %104 = add nsw i16 %103, -1
  %105 = add nsw i32 %101, 1
  store i32 %105, ptr %11, align 4, !tbaa !21
  %106 = sext i32 %101 to i64
  %107 = getelementptr inbounds i16, ptr %102, i64 %106
  store i16 %104, ptr %107, align 2, !tbaa !23
  br label %_ZN6icu_775Edits6appendEi.exit29

_ZN6icu_775Edits6appendEi.exit29:                 ; preds = %100, %90, %84, %78, %23, %._crit_edge, %2, %9
  ret void
}